target datalayout = "e-m:e-p270:32:32-p271:32:32-p272:64:64-i64:64-i128:128-f80:128-n8:16:32:64-S128"
target triple = "x86_64-pc-linux-gnu"

%"class.lean::object_ref" = type { ptr }
%"class.lean::data_value" = type { %"class.lean::object_ref" }
%"class.lean::list_ref" = type { %"class.lean::object_ref" }
%struct.lean_object = type { i32, i32 }

; Function Attrs: inlinehint mustprogress nounwind uwtable
define internal noundef zeroext i1 @_ZL10lean_is_stP11lean_object(ptr noundef %0) #7 {
  %2 = alloca ptr, align 8
  store ptr %0, ptr %2, align 8, !tbaa !14
  %3 = load ptr, ptr %2, align 8, !tbaa !14
  %4 = getelementptr inbounds nuw %struct.lean_object, ptr %3, i32 0, i32 0
  %5 = load i32, ptr %4, align 4, !tbaa !51
  %6 = icmp sgt i32 %5, 0
  ret i1 %6
}

; Function Attrs: inlinehint mustprogress uwtable
define internal void @_ZL12lean_inc_refP11lean_object(ptr noundef %0) #4 {
  %2 = alloca ptr, align 8
  store ptr %0, ptr %2, align 8, !tbaa !14
  %3 = load ptr, ptr %2, align 8, !tbaa !14
  %4 = call noundef zeroext i1 @_ZL10lean_is_stP11lean_object(ptr noundef %3)
  %5 = zext i1 %4 to i64
  %6 = call i64 @llvm.expect.i64(i64 %5, i64 1)
  %7 = icmp ne i64 %6, 0
  br i1 %7, label %8, label %13

8:                                                ; preds = %1
  %9 = load ptr, ptr %2, align 8, !tbaa !14
  %10 = getelementptr inbounds nuw %struct.lean_object, ptr %9, i32 0, i32 0
  %11 = load i32, ptr %10, align 4, !tbaa !51
  %12 = add nsw i32 %11, 1
  store i32 %12, ptr %10, align 4, !tbaa !51
  br label %21

13:                                               ; preds = %1
  %14 = load ptr, ptr %2, align 8, !tbaa !14
  %15 = getelementptr inbounds nuw %struct.lean_object, ptr %14, i32 0, i32 0
  %16 = load i32, ptr %15, align 4, !tbaa !51
  %17 = icmp ne i32 %16, 0
  br i1 %17, label %18, label %20

18:                                               ; preds = %13
  %19 = load ptr, ptr %2, align 8, !tbaa !14
  call void @lean_inc_ref_cold(ptr noundef %19)
  br label %20

20:                                               ; preds = %18, %13
  br label %21

21:                                               ; preds = %20, %8
  ret void
}

; Function Attrs: alwaysinline mustprogress nounwind uwtable
define internal noundef zeroext i1 @_ZL14lean_is_scalarP11lean_object(ptr noundef %0) #6 {
  %2 = alloca ptr, align 8
  store ptr %0, ptr %2, align 8, !tbaa !14
  %3 = load ptr, ptr %2, align 8, !tbaa !14
  %4 = ptrtoint ptr %3 to i64
  %5 = and i64 %4, 1
  %6 = icmp eq i64 %5, 1
  ret i1 %6
}

; Function Attrs: inlinehint mustprogress nounwind uwtable
define internal noundef ptr @_ZL8lean_boxm(i64 noundef %0) #7 {
  %2 = alloca i64, align 8
  store i64 %0, ptr %2, align 8, !tbaa !55
  %3 = load i64, ptr %2, align 8, !tbaa !55
  %4 = shl i64 %3, 1
  %5 = or i64 %4, 1
  %6 = inttoptr i64 %5 to ptr
  ret ptr %6
}

; Function Attrs: alwaysinline mustprogress uwtable
define internal void @_ZL8lean_incP11lean_object(ptr noundef %0) #5 {
  %2 = alloca ptr, align 8
  store ptr %0, ptr %2, align 8, !tbaa !14
  %3 = load ptr, ptr %2, align 8, !tbaa !14
  %4 = call noundef zeroext i1 @_ZL14lean_is_scalarP11lean_object(ptr noundef %3)
  br i1 %4, label %7, label %5

5:                                                ; preds = %1
  %6 = load ptr, ptr %2, align 8, !tbaa !14
  call void @_ZL12lean_inc_refP11lean_object(ptr noundef %6)
  br label %7

7:                                                ; preds = %5, %1
  ret void
}

; Function Attrs: inlinehint mustprogress uwtable
define linkonce_odr hidden noundef ptr @_ZN4lean3boxEm(i64 noundef %0) #4 comdat {
  %2 = alloca i64, align 8
  store i64 %0, ptr %2, align 8, !tbaa !55
  %3 = load i64, ptr %2, align 8, !tbaa !55
  %4 = call noundef ptr @_ZL8lean_boxm(i64 noundef %3)
  ret ptr %4
}

; Function Attrs: inlinehint mustprogress uwtable
define linkonce_odr hidden void @_ZN4lean3incEP11lean_object(ptr noundef %0) #4 comdat {
  %2 = alloca ptr, align 8
  store ptr %0, ptr %2, align 8, !tbaa !14
  %3 = load ptr, ptr %2, align 8, !tbaa !14
  call void @_ZL8lean_incP11lean_object(ptr noundef %3)
  ret void
}

; Function Attrs: mustprogress uwtable
define linkonce_odr hidden void @_ZN4lean10object_refC2EOS0_(ptr noundef nonnull align 8 dereferenceable(8) %0, ptr noundef nonnull align 8 dereferenceable(8) %1) unnamed_addr #0 comdat align 2 {
  %3 = alloca ptr, align 8
  %4 = alloca ptr, align 8
  store ptr %0, ptr %3, align 8, !tbaa !12
  store ptr %1, ptr %4, align 8, !tbaa !12
  %5 = load ptr, ptr %3, align 8
  %6 = getelementptr inbounds nuw %"class.lean::object_ref", ptr %5, i32 0, i32 0
  %7 = load ptr, ptr %4, align 8, !tbaa !12
  %8 = getelementptr inbounds nuw %"class.lean::object_ref", ptr %7, i32 0, i32 0
  %9 = load ptr, ptr %8, align 8, !tbaa !15
  store ptr %9, ptr %6, align 8, !tbaa !15
  %10 = call noundef ptr @_ZN4lean3boxEm(i64 noundef 0)
  %11 = load ptr, ptr %4, align 8, !tbaa !12
  %12 = getelementptr inbounds nuw %"class.lean::object_ref", ptr %11, i32 0, i32 0
  store ptr %10, ptr %12, align 8, !tbaa !15
  ret void
}

; Function Attrs: inlinehint mustprogress uwtable
define linkonce_odr hidden void @_ZN4lean8mk_cnstrEjP11lean_objectj(ptr dead_on_unwind noalias writable sret(%"class.lean::object_ref") align 8 %0, i32 noundef %1, ptr noundef %2, i32 noundef %3) #4 comdat {
  %5 = alloca ptr, align 8
  %6 = alloca i32, align 4
  %7 = alloca ptr, align 8
  %8 = alloca i32, align 4
  store ptr %0, ptr %5, align 8
  store i32 %1, ptr %6, align 4, !tbaa !54
  store ptr %2, ptr %7, align 8, !tbaa !14
  store i32 %3, ptr %8, align 4, !tbaa !54
  %9 = load i32, ptr %6, align 4, !tbaa !54
  %10 = load i32, ptr %8, align 4, !tbaa !54
  call void @_ZN4lean8mk_cnstrEjjPP11lean_objectj(ptr dead_on_unwind writable sret(%"class.lean::object_ref") align 8 %0, i32 noundef %9, i32 noundef 1, ptr noundef %7, i32 noundef %10)
  ret void
}

; Function Attrs: mustprogress nounwind uwtable
define linkonce_odr hidden noundef ptr @_ZNK4lean10object_ref3rawEv(ptr noundef nonnull align 8 dereferenceable(8) %0) #2 comdat align 2 {
  %2 = alloca ptr, align 8
  store ptr %0, ptr %2, align 8, !tbaa !12
  %3 = load ptr, ptr %2, align 8
  %4 = getelementptr inbounds nuw %"class.lean::object_ref", ptr %3, i32 0, i32 0
  %5 = load ptr, ptr %4, align 8, !tbaa !15
  ret ptr %5
}

; Function Attrs: mustprogress uwtable
define linkonce_odr hidden void @_ZN4lean10data_valueC2ERKNS_4nameE(ptr noundef nonnull align 8 dereferenceable(8) %0, ptr noundef nonnull align 8 dereferenceable(8) %1) unnamed_addr #0 comdat align 2 personality ptr @__gxx_personality_v0 {
  %3 = alloca ptr, align 8
  %4 = alloca ptr, align 8
  %5 = alloca %"class.lean::object_ref", align 8
  %6 = alloca ptr, align 8
  %7 = alloca i32, align 4
  store ptr %0, ptr %3, align 8, !tbaa !3
  store ptr %1, ptr %4, align 8, !tbaa !21
  %8 = load ptr, ptr %3, align 8
  call void @llvm.lifetime.start.p0(i64 8, ptr %5) #10
  %9 = load ptr, ptr %4, align 8, !tbaa !21
  %10 = call noundef ptr @_ZNK4lean10object_ref3rawEv(ptr noundef nonnull align 8 dereferenceable(8) %9)
  call void @_ZN4lean8mk_cnstrEjP11lean_objectj(ptr dead_on_unwind writable sret(%"class.lean::object_ref") align 8 %5, i32 noundef 2, ptr noundef %10, i32 noundef 0)
  invoke void @_ZN4lean10object_refC2EOS0_(ptr noundef nonnull align 8 dereferenceable(8) %8, ptr noundef nonnull align 8 dereferenceable(8) %5)
          to label %11 unwind label %15

11:                                               ; preds = %2
  call void @_ZN4lean10object_refD2Ev(ptr noundef nonnull align 8 dereferenceable(8) %5) #10
  call void @llvm.lifetime.end.p0(i64 8, ptr %5) #10
  %12 = load ptr, ptr %4, align 8, !tbaa !21
  %13 = call noundef ptr @_ZNK4lean10object_ref3rawEv(ptr noundef nonnull align 8 dereferenceable(8) %12)
  invoke void @_ZN4lean3incEP11lean_object(ptr noundef %13)
          to label %14 unwind label %19

14:                                               ; preds = %11
  ret void

15:                                               ; preds = %2
  %16 = landingpad { ptr, i32 }
          cleanup
  %17 = extractvalue { ptr, i32 } %16, 0
  store ptr %17, ptr %6, align 8
  %18 = extractvalue { ptr, i32 } %16, 1
  store i32 %18, ptr %7, align 4
  call void @_ZN4lean10object_refD2Ev(ptr noundef nonnull align 8 dereferenceable(8) %5) #10
  call void @llvm.lifetime.end.p0(i64 8, ptr %5) #10
  br label %23

19:                                               ; preds = %11
  %20 = landingpad { ptr, i32 }
          cleanup
  %21 = extractvalue { ptr, i32 } %20, 0
  store ptr %21, ptr %6, align 8
  %22 = extractvalue { ptr, i32 } %20, 1
  store i32 %22, ptr %7, align 4
  call void @_ZN4lean10object_refD2Ev(ptr noundef nonnull align 8 dereferenceable(8) %8) #10
  br label %23

23:                                               ; preds = %19, %15
  %24 = load ptr, ptr %6, align 8
  %25 = load i32, ptr %7, align 4
  %26 = insertvalue { ptr, i32 } poison, ptr %24, 0
  %27 = insertvalue { ptr, i32 } %26, i32 %25, 1
  resume { ptr, i32 } %27
}

; Function Attrs: mustprogress uwtable
define void @_ZN4lean8set_nameERKNS_8list_refINS_8pair_refINS_4nameENS_10data_valueEEEEERKS2_S9_(ptr dead_on_unwind noalias writable sret(%"class.lean::list_ref") align 8 %0, ptr noundef nonnull align 8 dereferenceable(8) %1, ptr noundef nonnull align 8 dereferenceable(8) %2, ptr noundef nonnull align 8 dereferenceable(8) %3) #0 personality ptr @__gxx_personality_v0 {
  %5 = alloca ptr, align 8
  %6 = alloca ptr, align 8
  %7 = alloca ptr, align 8
  %8 = alloca ptr, align 8
  %9 = alloca %"class.lean::data_value", align 8
  %10 = alloca ptr, align 8
  %11 = alloca i32, align 4
  store ptr %0, ptr %5, align 8
  store ptr %1, ptr %6, align 8, !tbaa !23
  store ptr %2, ptr %7, align 8, !tbaa !21
  store ptr %3, ptr %8, align 8, !tbaa !21
  %12 = load ptr, ptr %6, align 8, !tbaa !23
  %13 = load ptr, ptr %7, align 8, !tbaa !21
  call void @llvm.lifetime.start.p0(i64 8, ptr %9) #10
  %14 = load ptr, ptr %8, align 8, !tbaa !21
  call void @_ZN4lean10data_valueC2ERKNS_4nameE(ptr noundef nonnull align 8 dereferenceable(8) %9, ptr noundef nonnull align 8 dereferenceable(8) %14)
  invoke void @_ZN4leanL6insertERKNS_8list_refINS_8pair_refINS_4nameENS_10data_valueEEEEERKS2_RKS3_(ptr dead_on_unwind writable sret(%"class.lean::list_ref") align 8 %0, ptr noundef nonnull align 8 dereferenceable(8) %12, ptr noundef nonnull align 8 dereferenceable(8) %13, ptr noundef nonnull align 8 dereferenceable(8) %9)
          to label %15 unwind label %16

15:                                               ; preds = %4
  call void @_ZN4lean10object_refD2Ev(ptr noundef nonnull align 8 dereferenceable(8) %9) #10
  call void @llvm.lifetime.end.p0(i64 8, ptr %9) #10
  ret void

16:                                               ; preds = %4
  %17 = landingpad { ptr, i32 }
          cleanup
  %18 = extractvalue { ptr, i32 } %17, 0
  store ptr %18, ptr %10, align 8
  %19 = extractvalue { ptr, i32 } %17, 1
  store i32 %19, ptr %11, align 4
  call void @_ZN4lean10object_refD2Ev(ptr noundef nonnull align 8 dereferenceable(8) %9) #10
  call void @llvm.lifetime.end.p0(i64 8, ptr %9) #10
  br label %20

20:                                               ; preds = %16
  %21 = load ptr, ptr %10, align 8
  %22 = load i32, ptr %11, align 4
  %23 = insertvalue { ptr, i32 } poison, ptr %21, 0
  %24 = insertvalue { ptr, i32 } %23, i32 %22, 1
  resume { ptr, i32 } %24
}