; Function Attrs: mustprogress uwtable
define void @_ZN4lean8set_nameERKNS_8list_refINS_8pair_refINS_4nameENS_10data_valueEEEEERKS2_S9_(ptr dead_on_unwind noalias writable sret(%"class.lean::list_ref") align 8 %0, ptr noundef nonnull readonly align 8 captures(none) dereferenceable(8) %1, ptr noundef nonnull align 8 dereferenceable(8) %2, ptr noundef nonnull readonly align 8 captures(none) dereferenceable(8) %3) local_unnamed_addr #0 personality ptr @__gxx_personality_v0 {
  %5 = alloca ptr, align 8
  %6 = alloca %"class.lean::data_value", align 8
  call void @llvm.lifetime.start.p0(i64 8, ptr nonnull %6) #6
  %7 = load ptr, ptr %3, align 8, !tbaa !3
  call void @llvm.lifetime.start.p0(i64 8, ptr nonnull %5)
  store ptr %7, ptr %5, align 8, !tbaa !29, !noalias !36
  call void @_ZN4lean8mk_cnstrEjjPP11lean_objectj(ptr dead_on_unwind nonnull writable sret(%"class.lean::object_ref") align 8 %6, i32 noundef 2, i32 noundef 1, ptr noundef nonnull %5, i32 noundef 0)
  call void @llvm.lifetime.end.p0(i64 8, ptr nonnull %5)
  %8 = load ptr, ptr %3, align 8, !tbaa !3
  %9 = ptrtoint ptr %8 to i64
  %10 = and i64 %9, 1
  %.not.i.i = icmp eq i64 %10, 0
  br i1 %.not.i.i, label %11, label %_ZN4lean10data_valueC2ERKNS_4nameE.exit

11:                                               ; preds = %4
  %.val.i.i.i = load i32, ptr %8, align 4, !tbaa !8
  %12 = icmp sgt i32 %.val.i.i.i, 0
  br i1 %12, label %13, label %15, !prof !11

13:                                               ; preds = %11
  %14 = add nuw nsw i32 %.val.i.i.i, 1
  store i32 %14, ptr %8, align 4, !tbaa !8
  br label %_ZN4lean10data_valueC2ERKNS_4nameE.exit

15:                                               ; preds = %11
  %.not.i.i6.i = icmp eq i32 %.val.i.i.i, 0
  br i1 %.not.i.i6.i, label %_ZN4lean10data_valueC2ERKNS_4nameE.exit, label %16

16:                                               ; preds = %15
  invoke void @lean_inc_ref_cold(ptr noundef nonnull %8)
          to label %_ZN4lean10data_valueC2ERKNS_4nameE.exit unwind label %17

common.resume:                                    ; preds = %33, %17
  %common.resume.op = phi { ptr, i32 } [ %18, %17 ], [ %34, %33 ]
  resume { ptr, i32 } %common.resume.op

17:                                               ; preds = %16
  %18 = landingpad { ptr, i32 }
          cleanup
  call void @_ZN4lean10object_refD2Ev(ptr noundef nonnull align 8 dereferenceable(8) %6) #6
  br label %common.resume

_ZN4lean10data_valueC2ERKNS_4nameE.exit:          ; preds = %4, %13, %15, %16
  invoke fastcc void @_ZN4leanL6insertERKNS_8list_refINS_8pair_refINS_4nameENS_10data_valueEEEEERKS2_RKS3_(ptr dead_on_unwind noalias writable align 8 %0, ptr noundef nonnull align 8 dereferenceable(8) %1, ptr noundef nonnull align 8 dereferenceable(8) %2, ptr noundef nonnull align 8 dereferenceable(8) %6)
          to label %19 unwind label %33

19:                                               ; preds = %_ZN4lean10data_valueC2ERKNS_4nameE.exit
  %20 = load ptr, ptr %6, align 8, !tbaa !3
  %21 = ptrtoint ptr %20 to i64
  %22 = and i64 %21, 1
  %.not.i.i4 = icmp eq i64 %22, 0
  br i1 %.not.i.i4, label %23, label %_ZN4lean10object_refD2Ev.exit

23:                                               ; preds = %19
  %24 = load i32, ptr %20, align 4, !tbaa !8
  %25 = icmp sgt i32 %24, 1
  br i1 %25, label %26, label %28, !prof !11

26:                                               ; preds = %23
  %27 = add nsw i32 %24, -1
  store i32 %27, ptr %20, align 4, !tbaa !8
  br label %_ZN4lean10object_refD2Ev.exit

28:                                               ; preds = %23
  %.not.i.i.i = icmp eq i32 %24, 0
  br i1 %.not.i.i.i, label %_ZN4lean10object_refD2Ev.exit, label %29

29:                                               ; preds = %28
  invoke void @lean_dec_ref_cold(ptr noundef nonnull %20)
          to label %_ZN4lean10object_refD2Ev.exit unwind label %30

30:                                               ; preds = %29
  %31 = landingpad { ptr, i32 }
          catch ptr null
  %32 = extractvalue { ptr, i32 } %31, 0
  call void @__clang_call_terminate(ptr %32) #7
  unreachable

_ZN4lean10object_refD2Ev.exit:                    ; preds = %19, %26, %28, %29
  call void @llvm.lifetime.end.p0(i64 8, ptr nonnull %6) #6
  ret void

33:                                               ; preds = %_ZN4lean10data_valueC2ERKNS_4nameE.exit
  %34 = landingpad { ptr, i32 }
          cleanup
  call void @_ZN4lean10object_refD2Ev(ptr noundef nonnull align 8 dereferenceable(8) %6) #6
  call void @llvm.lifetime.end.p0(i64 8, ptr nonnull %6) #6
  br label %common.resume
}